Certificate:
    Data:
        Version: 3 (0x2)
        Serial Number: 4097 (0x1001)
        Signature Algorithm: sha256WithRSAEncryption
        Issuer: C=AR, ST=Buenos Aires, L=La Plata, O=Christian Herrera, OU=Autoridad Certificadora, CN=Christian Herrera CA
        Validity
            Not Before: Jul 20 03:52:49 2025 GMT
            Not After : Jul 15 03:52:49 2045 GMT
        Subject: C=AR, ST=Buenos Aires, O=Christian Herrera, OU=Autoridad de IoT, CN=Autoridad de IoT
        Subject Public Key Info:
            Public Key Algorithm: rsaEncryption
                Public-Key: (4096 bit)
                Modulus:
                    00:a5:1b:05:e8:40:46:74:50:bf:e4:64:25:58:a0:
                    28:28:a2:2a:3a:ee:08:db:29:05:2c:7b:a6:38:67:
                    32:4d:67:cb:63:ac:28:51:83:41:ac:2d:4e:fb:39:
                    73:d9:3a:d9:55:10:95:1a:ba:ed:c3:cd:4e:35:67:
                    b0:5a:a1:32:f3:bf:65:45:07:cd:31:1a:59:af:67:
                    c6:e9:a6:7b:18:2c:62:1a:33:99:77:02:16:cb:61:
                    e7:2a:3e:e9:ac:cd:b5:02:1f:c4:66:06:76:6e:47:
                    6a:68:08:fb:6c:01:08:f2:ca:24:86:3c:01:3d:31:
                    49:f2:62:ef:55:b7:e3:cf:7a:71:a1:2c:a9:f1:f9:
                    61:97:08:39:69:f9:b1:7b:8d:9b:c2:82:6e:9c:77:
                    4b:18:6b:1a:56:bb:80:7b:1d:f8:23:4d:b6:eb:b2:
                    21:30:19:74:05:b6:27:31:b5:27:fb:7b:51:af:07:
                    23:e1:6c:5b:92:96:12:58:34:3c:ab:95:61:9f:c5:
                    d2:d2:b9:ae:5d:2b:5d:9b:72:f9:98:73:93:0c:23:
                    49:66:5e:3e:77:10:06:51:31:d9:6b:64:dd:42:b0:
                    54:eb:d1:db:62:51:c8:8a:5e:8f:a5:47:8d:8f:ac:
                    11:e2:8c:83:21:74:1d:14:81:61:9b:22:4c:b9:11:
                    ff:d3:5f:bc:1d:3c:6c:52:48:d1:87:ba:bf:87:d0:
                    14:30:c3:44:01:d4:9e:01:4d:02:54:09:2b:5e:9f:
                    28:f4:82:a6:f8:90:6f:ee:1f:3f:2b:59:fb:fe:ae:
                    17:cc:ee:c4:bc:fb:a0:93:76:e6:f0:fe:13:23:76:
                    4c:1b:28:c3:58:36:df:5f:d4:1e:1b:1e:a4:9e:2f:
                    2f:89:3e:98:91:65:3e:2f:51:59:91:2f:13:29:16:
                    9a:ca:4e:53:b5:cd:5b:5e:cb:cd:2e:de:6f:dd:c6:
                    6b:a0:f9:77:6e:cd:e0:e5:96:ce:29:71:50:0a:c0:
                    06:bd:86:d6:db:36:4d:e0:0f:9e:1a:cb:7c:ea:aa:
                    f5:70:6a:d6:90:66:82:e8:3a:29:0d:42:de:cc:a9:
                    32:4f:53:a5:06:fc:68:3c:6e:3a:2e:4c:c4:bb:5f:
                    b9:17:fe:74:08:4e:ab:63:34:c3:15:e6:e6:60:e0:
                    ea:5b:f5:46:43:c7:4c:27:c7:81:df:38:c4:b4:2a:
                    da:34:82:bc:18:30:87:65:57:5d:77:ee:66:f9:99:
                    a6:02:dc:86:46:aa:73:dc:ba:7a:08:1d:32:bf:41:
                    63:0f:e9:d5:4c:dd:40:a5:9c:3d:09:b4:65:99:96:
                    ae:d4:a8:19:90:40:22:05:c2:f7:e1:3e:c8:b5:f6:
                    6c:51:21
                Exponent: 65537 (0x10001)
        X509v3 extensions:
            X509v3 Basic Constraints: critical
                CA:TRUE, pathlen:0
            X509v3 Subject Key Identifier: 
                40:28:BD:92:26:71:F6:F3:CE:BF:EC:44:FB:C7:1F:C7:37:CD:01:F1
            X509v3 Authority Key Identifier: 
                F7:EE:C2:07:47:71:F5:9E:10:43:2D:89:75:C4:8A:14:7E:C2:26:D9
            X509v3 Key Usage: critical
                Certificate Sign, CRL Sign
            X509v3 CRL Distribution Points: 
                Full Name:
                  URI:https://christianherrera.com.ar/ca.crl

    Signature Algorithm: sha256WithRSAEncryption
    Signature Value:
        17:46:92:b4:33:51:45:b4:d8:06:81:75:e1:ac:4d:45:f5:c8:
        57:ca:70:a6:45:df:f5:ca:5a:31:25:c7:cb:30:ad:66:d2:bb:
        09:7b:5c:6e:70:c0:c3:0f:97:0e:1b:0a:3f:01:8c:f3:4e:8e:
        32:64:c4:30:3d:c6:04:2c:46:f9:84:a5:40:dd:49:b0:6e:38:
        bc:77:a2:31:14:d2:81:eb:76:c5:2d:e4:a0:67:0a:5d:b2:ea:
        73:ac:01:8c:f1:cf:c8:75:2c:b4:be:ef:76:b0:b4:39:93:7c:
        d9:6f:2e:7e:ab:b4:70:fa:65:34:c2:0a:fe:2a:51:9c:1f:ba:
        da:63:94:28:e6:96:86:df:91:ae:cb:5c:08:be:77:38:7d:07:
        1e:41:d4:fc:ef:71:a8:d6:e7:c9:ab:09:35:0c:31:68:f3:a9:
        3f:43:a9:30:25:1e:ef:4e:7a:47:7b:3a:16:f3:27:97:28:59:
        c0:8f:18:00:e5:24:a0:44:a3:a8:8e:12:05:84:cc:cc:4a:70:
        cb:2f:b5:13:36:21:68:72:22:d8:44:68:23:00:63:96:7d:2c:
        d1:b7:99:fa:21:49:4a:74:0a:03:cb:09:f4:25:7a:57:55:93:
        b0:8e:bb:0d:51:b1:1b:dd:bc:ac:c3:4e:66:37:c5:e8:d3:10:
        63:10:dd:a7:f4:f3:c7:b7:b8:79:7f:fa:fc:4e:c1:c2:9c:4a:
        b6:0b:18:af:29:93:1c:b9:71:7f:af:c7:3c:4d:ce:9d:b2:4e:
        82:b7:4c:69:ba:87:98:1c:a7:b9:56:f3:c1:ac:f0:b8:80:a4:
        41:2b:a1:e0:0e:da:0d:19:bc:31:32:b5:e4:16:5d:29:33:e3:
        03:48:65:c4:e7:e1:f7:8d:af:f4:fe:ce:4d:73:9f:e4:65:8b:
        fd:03:ae:5d:29:e3:07:0e:f2:01:55:b4:83:5e:6f:bb:84:73:
        a1:f3:b5:79:78:39:a9:4c:19:28:fb:c7:92:36:1a:2c:88:45:
        a7:42:29:8d:0b:9e:00:f5:8b:3f:4c:aa:38:32:95:f8:ef:85:
        83:04:5e:3a:56:21:e1:2f:75:45:19:58:40:49:43:e7:77:0b:
        7b:71:3d:82:46:88:a6:8e:e5:a8:9a:5e:93:1f:d8:d1:6e:0b:
        bb:cc:26:35:9c:cd:76:59:fc:26:3e:b6:1b:f8:dd:b8:22:49:
        2a:37:05:74:ed:58:29:62:50:c2:d0:ce:32:8e:05:42:6e:d3:
        48:e5:c1:f4:97:e3:34:e6:61:66:2a:8b:b9:59:06:d7:3e:ab:
        3b:98:3f:9d:c5:2a:34:f7:57:f7:cb:fb:72:6f:85:b8:5f:d3:
        41:f1:c6:e6:ca:14:27:49
-----BEGIN CERTIFICATE-----
MIIGKDCCBBCgAwIBAgICEAEwDQYJKoZIhvcNAQELBQAwgZQxCzAJBgNVBAYTAkFS
MRUwEwYDVQQIDAxCdWVub3MgQWlyZXMxETAPBgNVBAcMCExhIFBsYXRhMRowGAYD
VQQKDBFDaHJpc3RpYW4gSGVycmVyYTEgMB4GA1UECwwXQXV0b3JpZGFkIENlcnRp
ZmljYWRvcmExHTAbBgNVBAMMFENocmlzdGlhbiBIZXJyZXJhIENBMB4XDTI1MDcy
MDAzNTI0OVoXDTQ1MDcxNTAzNTI0OVowdjELMAkGA1UEBhMCQVIxFTATBgNVBAgM
DEJ1ZW5vcyBBaXJlczEaMBgGA1UECgwRQ2hyaXN0aWFuIEhlcnJlcmExGTAXBgNV
BAsMEEF1dG9yaWRhZCBkZSBJb1QxGTAXBgNVBAMMEEF1dG9yaWRhZCBkZSBJb1Qw
ggIiMA0GCSqGSIb3DQEBAQUAA4ICDwAwggIKAoICAQClGwXoQEZ0UL/kZCVYoCgo
oio67gjbKQUse6Y4ZzJNZ8tjrChRg0GsLU77OXPZOtlVEJUauu3DzU41Z7BaoTLz
v2VFB80xGlmvZ8bppnsYLGIaM5l3AhbLYecqPumszbUCH8RmBnZuR2poCPtsAQjy
yiSGPAE9MUnyYu9Vt+PPenGhLKnx+WGXCDlp+bF7jZvCgm6cd0sYaxpWu4B7Hfgj
TbbrsiEwGXQFticxtSf7e1GvByPhbFuSlhJYNDyrlWGfxdLSua5dK12bcvmYc5MM
I0lmXj53EAZRMdlrZN1CsFTr0dtiUciKXo+lR42PrBHijIMhdB0UgWGbIky5Ef/T
X7wdPGxSSNGHur+H0BQww0QB1J4BTQJUCStenyj0gqb4kG/uHz8rWfv+rhfM7sS8
+6CTdubw/hMjdkwbKMNYNt9f1B4bHqSeLy+JPpiRZT4vUVmRLxMpFprKTlO1zVte
y80u3m/dxmug+XduzeDlls4pcVAKwAa9htbbNk3gD54ay3zqqvVwataQZoLoOikN
Qt7MqTJPU6UG/Gg8bjouTMS7X7kX/nQITqtjNMMV5uZg4Opb9UZDx0wnx4HfOMS0
Kto0grwYMIdlV1137mb5maYC3IZGqnPcunoIHTK/QWMP6dVM3UClnD0JtGWZlq7U
qBmQQCIFwvfhPsi19mxRIQIDAQABo4GgMIGdMBIGA1UdEwEB/wQIMAYBAf8CAQAw
HQYDVR0OBBYEFEAovZImcfbzzr/sRPvHH8c3zQHxMB8GA1UdIwQYMBaAFPfuwgdH
cfWeEEMtiXXEihR+wibZMA4GA1UdDwEB/wQEAwIBBjA3BgNVHR8EMDAuMCygKqAo
hiZodHRwczovL2NocmlzdGlhbmhlcnJlcmEuY29tLmFyL2NhLmNybDANBgkqhkiG
9w0BAQsFAAOCAgEAF0aStDNRRbTYBoF14axNRfXIV8pwpkXf9cpaMSXHyzCtZtK7
CXtcbnDAww+XDhsKPwGM806OMmTEMD3GBCxG+YSlQN1JsG44vHeiMRTSget2xS3k
oGcKXbLqc6wBjPHPyHUstL7vdrC0OZN82W8ufqu0cPplNMIK/ipRnB+62mOUKOaW
ht+RrstcCL53OH0HHkHU/O9xqNbnyasJNQwxaPOpP0OpMCUe7056R3s6FvMnlyhZ
wI8YAOUkoESjqI4SBYTMzEpwyy+1EzYhaHIi2ERoIwBjln0s0beZ+iFJSnQKA8sJ
9CV6V1WTsI67DVGxG928rMNOZjfF6NMQYxDdp/Tzx7e4eX/6/E7BwpxKtgsYrymT
HLlxf6/HPE3OnbJOgrdMabqHmBynuVbzwazwuICkQSuh4A7aDRm8MTK15BZdKTPj
A0hlxOfh942v9P7OTXOf5GWL/QOuXSnjBw7yAVW0g15vu4RzofO1eXg5qUwZKPvH
kjYaLIhFp0IpjQueAPWLP0yqODKV+O+FgwReOlYh4S91RRlYQElD53cLe3E9gkaI
po7lqJpekx/Y0W4Lu8wmNZzNdln8Jj62G/jduCJJKjcFdO1YKWJQwtDOMo4FQm7T
SOXB9JfjNOZhZiqLuVkG1z6rO5g/ncUqNPdX98v7cm+FuF/TQfHG5soUJ0k=
-----END CERTIFICATE-----
