Certificate:
    Data:
        Version: 3 (0x2)
        Serial Number: 4097 (0x1001)
        Signature Algorithm: sha256WithRSAEncryption
        Issuer: C=AR, ST=Buenos Aires, L=La Plata, O=Christian Herrera, OU=Autoridad Certificadora, CN=Christian Herrera CA
        Validity
            Not Before: Sep 21 17:42:11 2025 GMT
            Not After : Sep 19 17:42:11 2035 GMT
        Subject: C=AR, ST=Buenos Aires, O=Christian Herrera, OU=Autoridad de IoT, CN=Autoridad de IoT
        Subject Public Key Info:
            Public Key Algorithm: rsaEncryption
                Public-Key: (4096 bit)
                Modulus:
                    00:f7:09:ba:28:33:57:87:7f:a4:d2:e3:80:b5:12:
                    79:49:32:06:6a:bb:79:5f:e2:ec:d8:8a:85:f0:97:
                    73:7d:a7:da:50:7a:ae:3e:d1:95:61:7a:b3:6e:d1:
                    9d:cd:f0:cc:30:2f:8f:d3:90:ae:37:4b:7d:a9:df:
                    95:52:dc:21:a9:d4:12:d6:6f:2b:b5:19:82:c5:7f:
                    aa:8e:8e:10:f7:8e:98:e6:1a:7a:a0:39:9a:38:42:
                    55:73:d1:d8:ed:7b:a1:68:99:9a:08:2c:41:c6:11:
                    48:1c:72:f6:32:26:66:d1:d6:7c:3b:ef:bf:0d:0e:
                    8e:70:b4:d7:61:de:9f:79:07:18:5a:09:f4:1b:68:
                    59:75:8a:08:66:b9:e9:87:33:fe:42:1e:56:36:ec:
                    17:09:d2:42:25:97:19:2f:ff:3a:70:ab:76:cf:86:
                    2e:a0:cc:7a:67:9d:b8:14:79:f1:4a:b7:9b:54:17:
                    69:d0:b8:8c:ad:55:48:0e:33:d8:cb:fc:68:9d:dd:
                    14:d3:5b:5b:d2:f3:cd:c7:e4:2d:83:e3:8b:10:c8:
                    08:45:ce:ec:6c:28:82:ea:94:73:c4:dd:92:bb:3e:
                    6b:c4:e3:8d:d9:84:4a:2e:a6:8b:ff:c5:5b:65:d8:
                    fe:99:54:49:fb:90:07:49:ef:e8:ef:56:b6:f4:fe:
                    3f:96:b7:c8:6c:6b:d2:04:20:59:03:0c:aa:ca:ba:
                    40:d3:cc:68:d7:fb:0a:c7:9b:30:64:a7:1b:79:1e:
                    b8:55:af:43:17:3c:1e:65:50:3b:3c:69:45:b6:10:
                    6d:4c:68:cd:8c:ef:5b:67:0a:8c:2f:79:9d:c8:bf:
                    ba:fd:02:9a:25:3c:1e:27:23:97:95:d2:2f:ce:aa:
                    27:d0:12:25:48:bb:eb:59:33:2d:9a:03:c0:89:64:
                    38:f1:18:81:87:32:d3:4c:4a:6b:fd:66:74:d4:1a:
                    11:a6:ec:d7:0d:99:21:4d:d7:d2:e5:d9:fb:03:d6:
                    3b:8c:82:2a:fc:b2:9e:57:eb:9b:70:bc:9b:3c:6a:
                    34:52:0f:ab:32:55:ff:31:3b:63:d7:03:0f:78:2e:
                    58:2e:2b:44:1e:e7:dc:a6:b5:dc:f4:e6:88:4e:89:
                    fa:ec:a2:a0:6b:56:07:a5:3e:27:02:9e:83:e3:6a:
                    e1:0f:fa:86:cc:89:90:c4:ce:ad:27:c2:9b:d8:08:
                    52:68:84:d6:7a:1f:4e:2d:ba:d9:45:12:00:3b:85:
                    08:75:54:c1:0b:ee:da:24:61:21:59:40:f4:98:fe:
                    f3:d7:aa:65:35:9c:ee:e8:3b:ee:5b:70:54:14:ed:
                    67:d9:d6:4f:f2:05:54:96:3c:a6:1b:c0:c6:c6:c2:
                    5a:e2:9b
                Exponent: 65537 (0x10001)
        X509v3 extensions:
            X509v3 Basic Constraints: critical
                CA:TRUE, pathlen:0
            X509v3 Subject Key Identifier: 
                71:4D:9A:8C:B1:23:CE:BD:79:03:B8:34:BE:C4:20:4E:E1:BB:18:F8
            X509v3 Authority Key Identifier: 
                F7:EE:C2:07:47:71:F5:9E:10:43:2D:89:75:C4:8A:14:7E:C2:26:D9
            X509v3 Key Usage: critical
                Certificate Sign, CRL Sign
            X509v3 CRL Distribution Points: 
                Full Name:
                  URI:https://christianherrera.com.ar/ca.crl

    Signature Algorithm: sha256WithRSAEncryption
    Signature Value:
        13:20:d5:75:14:ca:5b:92:23:ae:33:89:a2:f0:a8:7c:eb:96:
        9c:91:08:7f:c3:9d:83:8f:a8:de:58:77:f7:21:32:5d:83:88:
        db:45:ff:8c:fa:46:7c:ed:3c:e7:3a:cc:90:65:66:db:74:57:
        c4:1c:46:a0:64:b1:4a:ac:0f:2c:33:4f:41:be:ed:c0:ac:f1:
        9b:7f:77:d1:02:8b:9d:f9:57:27:73:08:eb:ed:90:1a:8e:a0:
        97:27:c7:8e:ae:5a:5c:47:ef:5f:bd:b1:c1:09:8b:f7:aa:59:
        0a:66:1b:32:4a:b8:e4:25:dc:a1:ba:bd:8b:28:8b:5f:d9:94:
        1d:a8:da:a5:2a:37:34:91:47:d1:9e:a8:0a:db:13:ea:94:39:
        ba:5a:41:65:99:56:b3:ab:de:05:1f:38:83:7e:75:d3:cb:69:
        bd:e5:20:4e:69:3d:95:f8:34:fb:e2:69:bc:0b:f2:45:80:1b:
        d0:97:16:3c:64:2a:13:41:77:9b:d0:e2:7d:9e:29:b4:16:eb:
        4c:4d:37:99:63:5e:2e:3f:7c:f2:4f:f7:16:dc:e9:c7:b6:64:
        d8:8a:15:e2:6a:b7:ec:ae:2a:77:24:2d:d9:32:d9:94:20:8b:
        c3:30:b2:60:a9:82:0d:61:5e:3c:73:94:87:eb:b3:b9:71:f3:
        d0:0d:d8:9c:60:35:d3:95:fc:38:aa:13:2a:3c:18:3f:b7:db:
        0e:e7:99:03:a0:f6:5c:95:5c:e1:64:5b:53:50:af:b5:c6:aa:
        7b:04:95:85:0a:b1:a7:cb:96:5c:61:bc:82:0a:70:21:2a:92:
        09:06:b5:c0:07:84:61:0d:ec:dd:81:6b:46:da:09:54:a1:8a:
        f6:ce:55:24:50:76:f1:1a:d6:8e:8b:29:84:82:92:d8:c1:66:
        cb:b8:02:d0:c3:65:73:d2:a2:35:98:46:83:f3:89:1f:3e:7c:
        1d:8c:9e:7e:da:2f:d8:6b:db:3a:17:2d:b3:06:09:70:bc:65:
        77:97:59:38:6a:fa:32:11:e0:59:2c:f9:fa:87:fe:85:f0:a7:
        2b:f0:ce:38:39:88:f9:ce:25:6c:0a:d5:05:e3:ed:d7:1e:32:
        11:22:eb:85:88:6f:c7:71:8b:b9:fe:e7:b7:7c:62:1d:29:d5:
        eb:c0:47:a8:86:92:00:0c:19:0b:14:a3:2f:36:14:e3:9b:a4:
        f8:95:63:4f:5c:be:14:c6:3e:4a:a5:19:f7:f0:75:df:cd:9c:
        e6:1a:c9:71:4a:bd:87:16:a8:58:5d:54:00:78:5f:20:08:5f:
        64:cb:c9:40:79:24:2f:b3:a5:e8:95:80:60:73:06:d0:65:86:
        b8:33:c3:5e:b7:73:63:e1
-----BEGIN CERTIFICATE-----
MIIGKDCCBBCgAwIBAgICEAEwDQYJKoZIhvcNAQELBQAwgZQxCzAJBgNVBAYTAkFS
MRUwEwYDVQQIDAxCdWVub3MgQWlyZXMxETAPBgNVBAcMCExhIFBsYXRhMRowGAYD
VQQKDBFDaHJpc3RpYW4gSGVycmVyYTEgMB4GA1UECwwXQXV0b3JpZGFkIENlcnRp
ZmljYWRvcmExHTAbBgNVBAMMFENocmlzdGlhbiBIZXJyZXJhIENBMB4XDTI1MDky
MTE3NDIxMVoXDTM1MDkxOTE3NDIxMVowdjELMAkGA1UEBhMCQVIxFTATBgNVBAgM
DEJ1ZW5vcyBBaXJlczEaMBgGA1UECgwRQ2hyaXN0aWFuIEhlcnJlcmExGTAXBgNV
BAsMEEF1dG9yaWRhZCBkZSBJb1QxGTAXBgNVBAMMEEF1dG9yaWRhZCBkZSBJb1Qw
ggIiMA0GCSqGSIb3DQEBAQUAA4ICDwAwggIKAoICAQD3CbooM1eHf6TS44C1EnlJ
MgZqu3lf4uzYioXwl3N9p9pQeq4+0ZVherNu0Z3N8MwwL4/TkK43S32p35VS3CGp
1BLWbyu1GYLFf6qOjhD3jpjmGnqgOZo4QlVz0djte6FomZoILEHGEUgccvYyJmbR
1nw7778NDo5wtNdh3p95BxhaCfQbaFl1ighmuemHM/5CHlY27BcJ0kIllxkv/zpw
q3bPhi6gzHpnnbgUefFKt5tUF2nQuIytVUgOM9jL/Gid3RTTW1vS883H5C2D44sQ
yAhFzuxsKILqlHPE3ZK7PmvE443ZhEoupov/xVtl2P6ZVEn7kAdJ7+jvVrb0/j+W
t8hsa9IEIFkDDKrKukDTzGjX+wrHmzBkpxt5HrhVr0MXPB5lUDs8aUW2EG1MaM2M
71tnCowveZ3Iv7r9ApolPB4nI5eV0i/OqifQEiVIu+tZMy2aA8CJZDjxGIGHMtNM
Smv9ZnTUGhGm7NcNmSFN19Ll2fsD1juMgir8sp5X65twvJs8ajRSD6syVf8xO2PX
Aw94LlguK0Qe59ymtdz05ohOifrsoqBrVgelPicCnoPjauEP+obMiZDEzq0nwpvY
CFJohNZ6H04tutlFEgA7hQh1VMEL7tokYSFZQPSY/vPXqmU1nO7oO+5bcFQU7WfZ
1k/yBVSWPKYbwMbGwlrimwIDAQABo4GgMIGdMBIGA1UdEwEB/wQIMAYBAf8CAQAw
HQYDVR0OBBYEFHFNmoyxI869eQO4NL7EIE7huxj4MB8GA1UdIwQYMBaAFPfuwgdH
cfWeEEMtiXXEihR+wibZMA4GA1UdDwEB/wQEAwIBBjA3BgNVHR8EMDAuMCygKqAo
hiZodHRwczovL2NocmlzdGlhbmhlcnJlcmEuY29tLmFyL2NhLmNybDANBgkqhkiG
9w0BAQsFAAOCAgEAEyDVdRTKW5IjrjOJovCofOuWnJEIf8Odg4+o3lh39yEyXYOI
20X/jPpGfO085zrMkGVm23RXxBxGoGSxSqwPLDNPQb7twKzxm3930QKLnflXJ3MI
6+2QGo6glyfHjq5aXEfvX72xwQmL96pZCmYbMkq45CXcobq9iyiLX9mUHajapSo3
NJFH0Z6oCtsT6pQ5ulpBZZlWs6veBR84g35108tpveUgTmk9lfg0++JpvAvyRYAb
0JcWPGQqE0F3m9DifZ4ptBbrTE03mWNeLj988k/3Ftzpx7Zk2IoV4mq37K4qdyQt
2TLZlCCLwzCyYKmCDWFePHOUh+uzuXHz0A3YnGA105X8OKoTKjwYP7fbDueZA6D2
XJVc4WRbU1CvtcaqewSVhQqxp8uWXGG8ggpwISqSCQa1wAeEYQ3s3YFrRtoJVKGK
9s5VJFB28RrWjosphIKS2MFmy7gC0MNlc9KiNZhGg/OJHz58HYyeftov2GvbOhct
swYJcLxld5dZOGr6MhHgWSz5+of+hfCnK/DOODmI+c4lbArVBePt1x4yESLrhYhv
x3GLuf7nt3xiHSnV68BHqIaSAAwZCxSjLzYU45uk+JVjT1y+FMY+SqUZ9/B1382c
5hrJcUq9hxaoWF1UAHhfIAhfZMvJQHkkL7Ol6JWAYHMG0GWGuDPDXrdzY+E=
-----END CERTIFICATE-----
