Certificate:
    Data:
        Version: 3 (0x2)
        Serial Number: 4096 (0x1000)
        Signature Algorithm: sha256WithRSAEncryption
        Issuer: C=AR, ST=Buenos Aires, L=La Plata, O=Christian Herrera, OU=Autoridad Certificadora, CN=Christian Herrera CA
        Validity
            Not Before: Jul 20 03:46:11 2025 GMT
            Not After : Jul 15 03:46:11 2045 GMT
        Subject: C=AR, ST=Buenos Aires, O=Christian Herrera, OU=Autoridad de Firma Digital, CN=Autoridad de Firma Digital
        Subject Public Key Info:
            Public Key Algorithm: rsaEncryption
                Public-Key: (4096 bit)
                Modulus:
                    00:c7:29:41:ae:c5:6f:7d:4f:38:37:d9:52:4d:f5:
                    30:9f:11:1f:67:a1:24:30:b8:29:d6:bb:03:1c:4c:
                    86:19:5f:dd:3f:34:7e:dc:36:83:ca:55:98:1e:d9:
                    99:96:2a:cd:0e:f5:21:35:b3:6d:91:c5:53:ba:79:
                    66:8e:e4:b6:e4:76:91:38:89:fa:b3:d6:f4:40:76:
                    c7:0a:08:c1:a9:f6:c2:cf:0a:8f:fe:a1:cf:9e:b8:
                    6e:51:d9:7f:c2:1d:e0:ab:9f:92:01:83:e2:7a:f0:
                    6d:88:c1:ff:e4:65:9a:8c:1d:9a:65:c4:c7:35:ce:
                    16:b0:8d:88:90:25:b3:85:a6:cf:bb:f8:f2:9e:4b:
                    ff:37:8b:04:38:03:72:29:a0:ab:00:6b:1a:c2:4a:
                    e9:f2:1e:51:60:1e:83:e7:a6:df:a7:fa:ac:9d:be:
                    d3:b1:c7:b9:66:a9:28:af:f9:0e:e5:dd:ee:90:5f:
                    4d:4e:2e:0d:df:15:db:87:df:0c:a2:45:82:ab:1c:
                    dc:31:af:36:e7:20:b5:5b:71:f1:20:0b:c4:f7:7d:
                    a9:09:92:dd:03:56:b4:d2:dc:3f:68:ae:1c:53:8b:
                    07:7e:64:8b:dd:f5:81:4f:62:54:c7:7a:e1:48:63:
                    ad:9a:b4:b1:59:b8:8a:d2:83:b2:4e:7c:8f:b6:24:
                    1d:87:15:c3:b7:86:ba:62:54:86:68:49:e3:2d:be:
                    44:b9:76:d9:f1:ac:ab:52:13:67:da:c2:ad:b4:b1:
                    7a:93:bb:fc:78:f1:75:2d:0b:40:e9:00:38:8d:38:
                    7e:df:e7:16:d8:8d:1d:e3:21:35:f9:c4:94:3c:05:
                    7e:e9:a2:10:04:8b:38:ee:72:1d:51:4b:7e:d3:4c:
                    78:dc:6d:a6:2c:82:4f:7b:dc:9b:c8:59:a0:3d:45:
                    78:7f:7f:cd:50:12:b8:20:1e:18:09:63:47:7f:a3:
                    32:b6:e1:25:f9:e9:5c:40:39:f0:15:b9:2c:6b:64:
                    72:ab:e2:6e:35:6e:00:10:f6:95:10:ef:46:59:6c:
                    4c:4b:96:5d:f7:cc:d5:c2:0c:26:f7:c7:dc:d3:ef:
                    34:e9:a9:93:36:e7:de:20:ba:de:7b:03:2c:b9:06:
                    4a:dc:82:70:6e:a9:8d:ea:37:d2:26:99:36:d5:d6:
                    02:4d:04:36:e9:11:00:ab:0f:85:70:f1:aa:8b:b0:
                    51:72:32:7e:3e:a0:cd:84:73:5a:08:65:7a:62:7a:
                    7e:1c:db:64:74:89:5c:df:6f:7c:c1:d7:17:03:61:
                    96:2f:25:93:7e:bb:ec:04:32:51:ea:35:73:62:de:
                    7a:10:12:6a:3d:18:6e:39:c6:73:c7:4a:30:d7:17:
                    b5:d6:59
                Exponent: 65537 (0x10001)
        X509v3 extensions:
            X509v3 Basic Constraints: critical
                CA:TRUE, pathlen:0
            X509v3 Subject Key Identifier: 
                1A:00:C1:85:35:1A:84:99:08:43:8C:EC:B6:C3:91:E8:FE:08:A8:87
            X509v3 Authority Key Identifier: 
                F7:EE:C2:07:47:71:F5:9E:10:43:2D:89:75:C4:8A:14:7E:C2:26:D9
            X509v3 Key Usage: critical
                Certificate Sign, CRL Sign
            X509v3 CRL Distribution Points: 
                Full Name:
                  URI:https://christianherrera.com.ar/ca.crl

    Signature Algorithm: sha256WithRSAEncryption
    Signature Value:
        ac:71:40:bc:e3:81:be:57:e8:af:b7:1f:87:30:89:10:79:4a:
        dc:44:e4:dd:e0:f1:af:fa:dc:a8:31:9b:f5:82:7c:39:65:39:
        5b:6d:6d:35:38:50:15:69:7a:e3:17:df:85:76:57:2b:ee:c6:
        91:96:ab:d8:05:c5:a6:4d:fe:db:46:f2:97:6c:22:bb:aa:ec:
        d0:3b:6d:85:db:92:16:f5:83:12:98:40:41:b0:75:9b:e1:81:
        0e:7e:15:1c:6a:ba:df:74:be:30:b1:9c:59:57:45:e5:dc:bc:
        a6:ea:61:7b:47:4a:46:ce:32:5c:04:28:bb:b8:3b:7c:f0:f1:
        b0:ad:8c:f7:b7:5d:10:d0:f7:71:30:3c:1d:f6:4e:76:9f:99:
        fb:e1:9e:6b:e0:b4:20:9c:7c:c5:5b:64:a8:03:d8:41:86:7f:
        50:c7:3f:11:76:b5:cd:f5:71:72:b0:93:15:4b:86:db:f1:b9:
        ff:c8:da:90:a8:7b:79:65:8f:c5:40:0a:63:31:d0:8e:d9:a4:
        81:40:33:4d:f4:96:d8:57:0a:6e:76:21:2c:7b:28:20:82:23:
        42:17:9f:db:81:bf:93:0f:f0:0e:8a:af:15:b4:1b:31:12:23:
        01:3f:a4:c0:11:71:16:c1:2b:38:7f:b4:a8:8d:2d:d9:13:96:
        9e:d2:cb:cc:ea:14:93:ed:a2:20:4e:cc:2f:05:3e:d3:3f:26:
        96:23:6e:d8:96:b4:0a:b2:5e:3d:cf:e2:63:1e:3e:6c:4f:f6:
        65:30:05:d3:12:20:06:47:1e:af:5d:02:b3:9b:83:9b:ff:10:
        d1:85:f6:f0:bc:20:3b:09:af:e5:0b:ce:29:14:bc:fd:3c:d6:
        9e:a7:49:1c:b9:e4:23:c6:b2:b6:01:4c:53:b4:28:4a:d2:87:
        8d:89:b8:f5:f4:80:bf:c2:e1:30:44:3a:f8:77:c2:d3:ea:80:
        d3:28:c4:37:bd:ad:ff:f4:04:cc:3a:55:17:2a:51:45:0d:25:
        57:1e:c2:ed:a3:d0:6d:47:dd:74:30:32:88:94:86:49:ba:56:
        86:8b:5d:61:34:08:af:ea:1f:db:9c:eb:49:b7:44:8c:8b:86:
        be:63:fe:7d:a7:62:6e:ce:5f:21:07:98:47:b7:47:8c:71:68:
        aa:c9:70:ff:c5:9e:96:70:d7:52:cf:c8:4e:c0:37:c0:91:8f:
        d9:0e:01:8b:25:5b:e4:11:08:e8:f7:f7:01:6b:3a:fb:6b:7c:
        25:2a:ba:a1:29:15:71:00:c6:98:d3:57:5d:4d:53:e4:53:5d:
        28:23:b3:bf:b0:33:93:b1:19:f3:b9:2d:c3:7b:b1:8f:7e:40:
        c5:0e:65:86:96:96:30:33
-----BEGIN CERTIFICATE-----
MIIGPTCCBCWgAwIBAgICEAAwDQYJKoZIhvcNAQELBQAwgZQxCzAJBgNVBAYTAkFS
MRUwEwYDVQQIDAxCdWVub3MgQWlyZXMxETAPBgNVBAcMCExhIFBsYXRhMRowGAYD
VQQKDBFDaHJpc3RpYW4gSGVycmVyYTEgMB4GA1UECwwXQXV0b3JpZGFkIENlcnRp
ZmljYWRvcmExHTAbBgNVBAMMFENocmlzdGlhbiBIZXJyZXJhIENBMB4XDTI1MDcy
MDAzNDYxMVoXDTQ1MDcxNTAzNDYxMVowgYoxCzAJBgNVBAYTAkFSMRUwEwYDVQQI
DAxCdWVub3MgQWlyZXMxGjAYBgNVBAoMEUNocmlzdGlhbiBIZXJyZXJhMSMwIQYD
VQQLDBpBdXRvcmlkYWQgZGUgRmlybWEgRGlnaXRhbDEjMCEGA1UEAwwaQXV0b3Jp
ZGFkIGRlIEZpcm1hIERpZ2l0YWwwggIiMA0GCSqGSIb3DQEBAQUAA4ICDwAwggIK
AoICAQDHKUGuxW99Tzg32VJN9TCfER9noSQwuCnWuwMcTIYZX90/NH7cNoPKVZge
2ZmWKs0O9SE1s22RxVO6eWaO5LbkdpE4ifqz1vRAdscKCMGp9sLPCo/+oc+euG5R
2X/CHeCrn5IBg+J68G2Iwf/kZZqMHZplxMc1zhawjYiQJbOFps+7+PKeS/83iwQ4
A3IpoKsAaxrCSunyHlFgHoPnpt+n+qydvtOxx7lmqSiv+Q7l3e6QX01OLg3fFduH
3wyiRYKrHNwxrzbnILVbcfEgC8T3fakJkt0DVrTS3D9orhxTiwd+ZIvd9YFPYlTH
euFIY62atLFZuIrSg7JOfI+2JB2HFcO3hrpiVIZoSeMtvkS5dtnxrKtSE2fawq20
sXqTu/x48XUtC0DpADiNOH7f5xbYjR3jITX5xJQ8BX7pohAEizjuch1RS37TTHjc
baYsgk973JvIWaA9RXh/f81QErggHhgJY0d/ozK24SX56VxAOfAVuSxrZHKr4m41
bgAQ9pUQ70ZZbExLll33zNXCDCb3x9zT7zTpqZM2594gut57Ayy5BkrcgnBuqY3q
N9ImmTbV1gJNBDbpEQCrD4Vw8aqLsFFyMn4+oM2Ec1oIZXpien4c22R0iVzfb3zB
1xcDYZYvJZN+u+wEMlHqNXNi3noQEmo9GG45xnPHSjDXF7XWWQIDAQABo4GgMIGd
MBIGA1UdEwEB/wQIMAYBAf8CAQAwHQYDVR0OBBYEFBoAwYU1GoSZCEOM7LbDkej+
CKiHMB8GA1UdIwQYMBaAFPfuwgdHcfWeEEMtiXXEihR+wibZMA4GA1UdDwEB/wQE
AwIBBjA3BgNVHR8EMDAuMCygKqAohiZodHRwczovL2NocmlzdGlhbmhlcnJlcmEu
Y29tLmFyL2NhLmNybDANBgkqhkiG9w0BAQsFAAOCAgEArHFAvOOBvlfor7cfhzCJ
EHlK3ETk3eDxr/rcqDGb9YJ8OWU5W21tNThQFWl64xffhXZXK+7GkZar2AXFpk3+
20byl2wiu6rs0DtthduSFvWDEphAQbB1m+GBDn4VHGq633S+MLGcWVdF5dy8puph
e0dKRs4yXAQou7g7fPDxsK2M97ddEND3cTA8HfZOdp+Z++Gea+C0IJx8xVtkqAPY
QYZ/UMc/EXa1zfVxcrCTFUuG2/G5/8jakKh7eWWPxUAKYzHQjtmkgUAzTfSW2FcK
bnYhLHsoIIIjQhef24G/kw/wDoqvFbQbMRIjAT+kwBFxFsErOH+0qI0t2ROWntLL
zOoUk+2iIE7MLwU+0z8mliNu2Ja0CrJePc/iYx4+bE/2ZTAF0xIgBkcer10Cs5uD
m/8Q0YX28LwgOwmv5QvOKRS8/TzWnqdJHLnkI8aytgFMU7QoStKHjYm49fSAv8Lh
MEQ6+HfC0+qA0yjEN72t//QEzDpVFypRRQ0lVx7C7aPQbUfddDAyiJSGSbpWhotd
YTQIr+of25zrSbdEjIuGvmP+fadibs5fIQeYR7dHjHFoqslw/8WelnDXUs/ITsA3
wJGP2Q4BiyVb5BEI6Pf3AWs6+2t8JSq6oSkVcQDGmNNXXU1T5FNdKCOzv7Azk7EZ
87ktw3uxj35AxQ5lhpaWMDM=
-----END CERTIFICATE-----
