Certificate:
    Data:
        Version: 3 (0x2)
        Serial Number: 4096 (0x1000)
        Signature Algorithm: sha256WithRSAEncryption
        Issuer: C=AR, ST=Buenos Aires, L=La Plata, O=Christian Herrera, OU=Autoridad Certificadora, CN=Christian Herrera CA
        Validity
            Not Before: Sep 21 17:35:01 2025 GMT
            Not After : Sep 19 17:35:01 2035 GMT
        Subject: C=AR, ST=Buenos Aires, O=Christian Herrera, OU=Autoridad de Firma Digital, CN=Autoridad de Firma Digital
        Subject Public Key Info:
            Public Key Algorithm: rsaEncryption
                Public-Key: (4096 bit)
                Modulus:
                    00:9f:53:fa:ab:24:57:ac:74:b1:c8:0e:a2:c3:49:
                    cd:bb:b0:ef:d2:b4:e8:b6:05:4a:11:cb:aa:88:fb:
                    ac:f2:07:ec:ad:b0:ce:d7:18:22:2f:4c:4e:50:58:
                    4c:ba:7d:27:96:16:98:77:07:fb:ed:53:55:9c:bf:
                    46:95:bf:93:da:f9:75:64:52:e5:95:f8:a7:b7:bd:
                    06:c8:87:4a:a2:6a:72:fc:a1:cb:db:c9:a0:36:ee:
                    5e:2f:67:d9:ab:5b:07:43:ca:ee:c5:89:ce:56:06:
                    70:93:b6:f7:cc:40:dc:85:74:1e:9a:87:d0:75:64:
                    a2:1e:82:7b:40:a7:cd:bf:b8:5e:3c:0e:a6:0c:e9:
                    c2:89:31:93:f3:af:28:cb:32:ca:6c:ff:95:c2:31:
                    57:9d:07:61:25:46:ad:ce:24:d8:ad:9a:ea:f7:cc:
                    b1:1f:f8:0c:4b:2d:c7:24:56:dd:1e:f1:e7:cb:9a:
                    0f:70:0d:60:f7:77:79:7b:94:6a:70:3d:cf:3f:1d:
                    c2:95:48:15:a5:47:60:01:81:ca:64:ec:2f:17:b7:
                    14:9c:21:bd:8a:a8:2e:e3:89:e9:91:70:65:e6:eb:
                    59:12:e9:bb:8d:2c:26:32:c6:5a:7b:d6:f3:7b:52:
                    5a:7e:03:cc:72:83:cc:78:67:83:6a:32:90:d2:e6:
                    ba:17:67:b7:45:42:ae:80:84:fe:a2:4a:22:c4:83:
                    33:95:a9:84:71:5c:f5:ab:fe:6a:64:f1:0a:d2:cd:
                    a4:43:28:90:45:47:b2:eb:22:f6:78:be:5c:4a:a8:
                    d5:6e:25:c5:72:e5:fb:05:c2:e5:63:45:fb:63:51:
                    86:32:2d:5d:02:0d:61:bc:c9:c2:8e:27:1e:3b:35:
                    39:42:cf:69:b4:c5:d2:fb:e9:e8:ee:50:d0:84:43:
                    33:fb:a8:5d:37:d0:07:67:0c:9c:12:40:a9:ac:e0:
                    53:14:29:06:e4:36:4d:88:4b:b5:46:fe:dd:9c:c6:
                    26:89:49:61:5e:27:5e:5c:10:f9:8d:29:9d:27:b3:
                    6d:4f:db:8b:99:d7:b4:d9:95:5a:c8:e5:ae:ab:81:
                    7a:e4:ea:44:9f:54:c4:55:12:fd:c8:8b:c9:a7:9f:
                    ee:df:1b:87:25:f0:52:62:68:8e:cd:17:e7:bf:c4:
                    34:4c:8c:b2:80:7d:7b:8d:e3:94:e2:df:c3:0a:28:
                    b5:73:56:cb:d4:fd:b5:be:29:3e:46:25:69:28:80:
                    b7:e8:36:3f:88:57:a6:ec:1c:eb:e1:3f:47:c0:d2:
                    41:3a:5b:da:54:b0:e2:b9:5b:37:49:64:c3:7c:96:
                    ca:d6:7b:d2:8a:fb:de:a7:5c:4e:0d:73:05:9a:1e:
                    3d:63:87
                Exponent: 65537 (0x10001)
        X509v3 extensions:
            X509v3 Basic Constraints: critical
                CA:TRUE, pathlen:0
            X509v3 Subject Key Identifier: 
                5C:84:12:94:7C:C3:FA:2C:F3:17:81:F1:AD:98:BC:16:CF:DF:0F:F7
            X509v3 Authority Key Identifier: 
                F7:EE:C2:07:47:71:F5:9E:10:43:2D:89:75:C4:8A:14:7E:C2:26:D9
            X509v3 Key Usage: critical
                Certificate Sign, CRL Sign
            X509v3 CRL Distribution Points: 
                Full Name:
                  URI:https://christianherrera.com.ar/ca.crl

    Signature Algorithm: sha256WithRSAEncryption
    Signature Value:
        0b:f9:6a:45:8e:e3:bc:8e:17:dd:b7:47:15:46:3a:03:eb:44:
        d2:65:e8:7e:9c:e6:60:76:3f:f3:72:d8:47:ec:d3:c8:2d:7d:
        d7:55:0f:d4:b5:ed:7d:6d:5a:b7:d9:a4:22:ef:c6:28:7e:8c:
        2c:4f:56:b8:1d:a3:6c:2f:99:db:e5:35:ee:76:41:01:2b:49:
        29:9a:21:8d:a2:37:76:4e:22:6c:72:e6:d6:f9:33:75:0c:e3:
        25:1f:52:3b:b8:45:ca:e5:bb:35:36:dd:e7:33:63:6a:2e:b3:
        a3:90:10:fb:d0:8b:db:81:80:a6:c1:f4:83:e1:b8:48:21:f1:
        41:06:a9:1a:0b:83:f1:6e:29:81:58:d1:be:14:6c:f1:ca:9c:
        40:40:22:c5:40:85:c9:04:37:18:81:84:13:4d:2b:24:b1:a3:
        3e:fc:88:f4:67:65:bd:a5:3d:1b:84:ed:b9:6c:7d:7d:69:8e:
        fd:b4:86:4d:5b:9f:f0:dc:70:ec:89:1d:fa:3f:49:29:26:6e:
        84:5b:22:2f:14:ac:30:dc:f5:1e:99:d6:a1:c5:77:d1:5b:32:
        62:c2:20:25:63:0e:56:77:66:9d:02:d7:ea:c7:ef:5a:79:84:
        7f:bd:62:2b:0d:cc:e4:11:94:67:2f:59:e5:e9:b7:27:1b:91:
        ab:f3:66:eb:f8:f6:6d:12:fa:fb:a0:87:0c:50:61:5c:f1:82:
        b0:f6:e9:e9:e1:3a:a7:23:40:55:54:47:34:a6:1e:f9:20:e2:
        c1:87:3d:76:6d:4c:bf:99:b6:8a:63:e8:5b:01:b7:77:cf:de:
        e9:23:4b:ab:5f:db:2f:62:ab:52:e7:04:37:b6:c4:fc:90:9b:
        43:d9:80:26:95:6c:e4:82:4f:ed:8f:85:a2:a8:04:44:06:9a:
        b6:c6:71:6e:3b:27:b1:81:0d:c3:a4:41:e4:71:f2:9e:77:04:
        c9:e8:dc:20:3c:f0:8d:df:b7:b8:8a:66:c7:dc:ae:e1:85:41:
        df:9c:56:b1:3c:19:28:0a:ed:f5:49:ca:cf:93:c2:2a:ae:7a:
        57:e1:f5:d0:92:25:5a:ad:d7:1d:b2:84:53:af:40:bb:e8:f0:
        ed:6a:d8:6e:69:fe:f1:ec:37:1c:fe:0e:b0:a9:3f:bc:e5:66:
        a2:99:ba:b5:2c:ca:8c:1d:da:bf:7f:34:50:06:be:c0:90:83:
        9b:54:b9:ce:e3:47:90:3a:a5:2f:cd:10:3e:75:86:4a:62:fa:
        d6:9c:83:25:d1:97:21:d0:4c:07:19:84:a7:20:92:39:42:ed:
        04:ee:86:96:b8:ec:6f:d4:2d:32:f6:5d:06:9b:e8:86:fb:14:
        7e:df:56:fa:45:f9:91:16
-----BEGIN CERTIFICATE-----
MIIGPTCCBCWgAwIBAgICEAAwDQYJKoZIhvcNAQELBQAwgZQxCzAJBgNVBAYTAkFS
MRUwEwYDVQQIDAxCdWVub3MgQWlyZXMxETAPBgNVBAcMCExhIFBsYXRhMRowGAYD
VQQKDBFDaHJpc3RpYW4gSGVycmVyYTEgMB4GA1UECwwXQXV0b3JpZGFkIENlcnRp
ZmljYWRvcmExHTAbBgNVBAMMFENocmlzdGlhbiBIZXJyZXJhIENBMB4XDTI1MDky
MTE3MzUwMVoXDTM1MDkxOTE3MzUwMVowgYoxCzAJBgNVBAYTAkFSMRUwEwYDVQQI
DAxCdWVub3MgQWlyZXMxGjAYBgNVBAoMEUNocmlzdGlhbiBIZXJyZXJhMSMwIQYD
VQQLDBpBdXRvcmlkYWQgZGUgRmlybWEgRGlnaXRhbDEjMCEGA1UEAwwaQXV0b3Jp
ZGFkIGRlIEZpcm1hIERpZ2l0YWwwggIiMA0GCSqGSIb3DQEBAQUAA4ICDwAwggIK
AoICAQCfU/qrJFesdLHIDqLDSc27sO/StOi2BUoRy6qI+6zyB+ytsM7XGCIvTE5Q
WEy6fSeWFph3B/vtU1Wcv0aVv5Pa+XVkUuWV+Ke3vQbIh0qianL8ocvbyaA27l4v
Z9mrWwdDyu7Fic5WBnCTtvfMQNyFdB6ah9B1ZKIegntAp82/uF48DqYM6cKJMZPz
ryjLMsps/5XCMVedB2ElRq3OJNitmur3zLEf+AxLLcckVt0e8efLmg9wDWD3d3l7
lGpwPc8/HcKVSBWlR2ABgcpk7C8XtxScIb2KqC7jiemRcGXm61kS6buNLCYyxlp7
1vN7Ulp+A8xyg8x4Z4NqMpDS5roXZ7dFQq6AhP6iSiLEgzOVqYRxXPWr/mpk8QrS
zaRDKJBFR7LrIvZ4vlxKqNVuJcVy5fsFwuVjRftjUYYyLV0CDWG8ycKOJx47NTlC
z2m0xdL76ejuUNCEQzP7qF030AdnDJwSQKms4FMUKQbkNk2IS7VG/t2cxiaJSWFe
J15cEPmNKZ0ns21P24uZ17TZlVrI5a6rgXrk6kSfVMRVEv3Ii8mnn+7fG4cl8FJi
aI7NF+e/xDRMjLKAfXuN45Ti38MKKLVzVsvU/bW+KT5GJWkogLfoNj+IV6bsHOvh
P0fA0kE6W9pUsOK5WzdJZMN8lsrWe9KK+96nXE4NcwWaHj1jhwIDAQABo4GgMIGd
MBIGA1UdEwEB/wQIMAYBAf8CAQAwHQYDVR0OBBYEFFyEEpR8w/os8xeB8a2YvBbP
3w/3MB8GA1UdIwQYMBaAFPfuwgdHcfWeEEMtiXXEihR+wibZMA4GA1UdDwEB/wQE
AwIBBjA3BgNVHR8EMDAuMCygKqAohiZodHRwczovL2NocmlzdGlhbmhlcnJlcmEu
Y29tLmFyL2NhLmNybDANBgkqhkiG9w0BAQsFAAOCAgEAC/lqRY7jvI4X3bdHFUY6
A+tE0mXofpzmYHY/83LYR+zTyC1911UP1LXtfW1at9mkIu/GKH6MLE9WuB2jbC+Z
2+U17nZBAStJKZohjaI3dk4ibHLm1vkzdQzjJR9SO7hFyuW7NTbd5zNjai6zo5AQ
+9CL24GApsH0g+G4SCHxQQapGguD8W4pgVjRvhRs8cqcQEAixUCFyQQ3GIGEE00r
JLGjPvyI9GdlvaU9G4TtuWx9fWmO/bSGTVuf8Nxw7Ikd+j9JKSZuhFsiLxSsMNz1
HpnWocV30VsyYsIgJWMOVndmnQLX6sfvWnmEf71iKw3M5BGUZy9Z5em3JxuRq/Nm
6/j2bRL6+6CHDFBhXPGCsPbp6eE6pyNAVVRHNKYe+SDiwYc9dm1Mv5m2imPoWwG3
d8/e6SNLq1/bL2KrUucEN7bE/JCbQ9mAJpVs5IJP7Y+FoqgERAaatsZxbjsnsYEN
w6RB5HHynncEyejcIDzwjd+3uIpmx9yu4YVB35xWsTwZKArt9UnKz5PCKq56V+H1
0JIlWq3XHbKEU69Au+jw7WrYbmn+8ew3HP4OsKk/vOVmopm6tSzKjB3av380UAa+
wJCDm1S5zuNHkDqlL80QPnWGSmL61pyDJdGXIdBMBxmEpyCSOULtBO6Glrjsb9Qt
MvZdBpvohvsUft9W+kX5kRY=
-----END CERTIFICATE-----
